; ModuleID = '14/1054.c'
source_filename = "14/1054.c"
target datalayout = "e-m:e-p270:32:32-p271:32:32-p272:64:64-i64:64-f80:128-n8:16:32:64-S128"
target triple = "x86_64-pc-linux-gnu"

%struct.student = type { i32, i32, i32 }

@.str = private unnamed_addr constant [3 x i8] c"%d\00", align 1
@.str.1 = private unnamed_addr constant [7 x i8] c"%d%d%d\00", align 1
@.str.2 = private unnamed_addr constant [7 x i8] c"%d %d\0A\00", align 1

; Function Attrs: noinline nounwind uwtable
define dso_local i32 @main(i32 %0, i8** %1) #0 {
  %3 = alloca i32, align 4
  %4 = alloca i32, align 4
  %5 = alloca i8**, align 8
  %6 = alloca i32, align 4
  %7 = alloca i32, align 4
  %8 = alloca i32, align 4
  %9 = alloca i32, align 4
  %10 = alloca i32, align 4
  %11 = alloca i32, align 4
  %12 = alloca i32, align 4
  %13 = alloca i32, align 4
  %14 = alloca i32, align 4
  %15 = alloca [100000 x %struct.student], align 16
  store i32 0, i32* %3, align 4
  store i32 %0, i32* %4, align 4
  store i8** %1, i8*** %5, align 8
  store i32 0, i32* %6, align 4
  store i32 0, i32* %7, align 4
  store i32 0, i32* %8, align 4
  store i32 0, i32* %14, align 4
  %16 = call i32 (i8*, ...) @__isoc99_scanf(i8* getelementptr inbounds ([3 x i8], [3 x i8]* @.str, i64 0, i64 0), i32* %12)
  store i32 0, i32* %13, align 4
  br label %17

17:                                               ; preds = %71, %2
  %18 = load i32, i32* %13, align 4
  %19 = load i32, i32* %12, align 4
  %20 = icmp slt i32 %18, %19
  br i1 %20, label %21, label %74

21:                                               ; preds = %17
  %22 = load i32, i32* %13, align 4
  %23 = sext i32 %22 to i64
  %24 = getelementptr inbounds [100000 x %struct.student], [100000 x %struct.student]* %15, i64 0, i64 %23
  %25 = getelementptr inbounds %struct.student, %struct.student* %24, i32 0, i32 0
  %26 = load i32, i32* %13, align 4
  %27 = sext i32 %26 to i64
  %28 = getelementptr inbounds [100000 x %struct.student], [100000 x %struct.student]* %15, i64 0, i64 %27
  %29 = getelementptr inbounds %struct.student, %struct.student* %28, i32 0, i32 1
  %30 = load i32, i32* %13, align 4
  %31 = sext i32 %30 to i64
  %32 = getelementptr inbounds [100000 x %struct.student], [100000 x %struct.student]* %15, i64 0, i64 %31
  %33 = getelementptr inbounds %struct.student, %struct.student* %32, i32 0, i32 2
  %34 = call i32 (i8*, ...) @__isoc99_scanf(i8* getelementptr inbounds ([7 x i8], [7 x i8]* @.str.1, i64 0, i64 0), i32* %25, i32* %29, i32* %33)
  %35 = load i32, i32* %13, align 4
  %36 = sext i32 %35 to i64
  %37 = getelementptr inbounds [100000 x %struct.student], [100000 x %struct.student]* %15, i64 0, i64 %36
  %38 = getelementptr inbounds %struct.student, %struct.student* %37, i32 0, i32 1
  %39 = load i32, i32* %38, align 4
  %40 = load i32, i32* %13, align 4
  %41 = sext i32 %40 to i64
  %42 = getelementptr inbounds [100000 x %struct.student], [100000 x %struct.student]* %15, i64 0, i64 %41
  %43 = getelementptr inbounds %struct.student, %struct.student* %42, i32 0, i32 2
  %44 = load i32, i32* %43, align 4
  %45 = add nsw i32 %39, %44
  store i32 %45, i32* %14, align 4
  %46 = load i32, i32* %14, align 4
  %47 = load i32, i32* %8, align 4
  %48 = icmp sgt i32 %46, %47
  br i1 %48, label %49, label %52

49:                                               ; preds = %21
  %50 = load i32, i32* %14, align 4
  store i32 %50, i32* %8, align 4
  %51 = load i32, i32* %13, align 4
  store i32 %51, i32* %11, align 4
  br label %52

52:                                               ; preds = %49, %21
  %53 = load i32, i32* %14, align 4
  %54 = load i32, i32* %7, align 4
  %55 = icmp sgt i32 %53, %54
  br i1 %55, label %56, label %61

56:                                               ; preds = %52
  %57 = load i32, i32* %7, align 4
  store i32 %57, i32* %8, align 4
  %58 = load i32, i32* %10, align 4
  store i32 %58, i32* %11, align 4
  %59 = load i32, i32* %14, align 4
  store i32 %59, i32* %7, align 4
  %60 = load i32, i32* %13, align 4
  store i32 %60, i32* %10, align 4
  br label %61

61:                                               ; preds = %56, %52
  %62 = load i32, i32* %14, align 4
  %63 = load i32, i32* %6, align 4
  %64 = icmp sgt i32 %62, %63
  br i1 %64, label %65, label %70

65:                                               ; preds = %61
  %66 = load i32, i32* %6, align 4
  store i32 %66, i32* %7, align 4
  %67 = load i32, i32* %9, align 4
  store i32 %67, i32* %10, align 4
  %68 = load i32, i32* %14, align 4
  store i32 %68, i32* %6, align 4
  %69 = load i32, i32* %13, align 4
  store i32 %69, i32* %9, align 4
  br label %70

70:                                               ; preds = %65, %61
  br label %71

71:                                               ; preds = %70
  %72 = load i32, i32* %13, align 4
  %73 = add nsw i32 %72, 1
  store i32 %73, i32* %13, align 4
  br label %17

74:                                               ; preds = %17
  %75 = load i32, i32* %9, align 4
  %76 = sext i32 %75 to i64
  %77 = getelementptr inbounds [100000 x %struct.student], [100000 x %struct.student]* %15, i64 0, i64 %76
  %78 = getelementptr inbounds %struct.student, %struct.student* %77, i32 0, i32 0
  %79 = load i32, i32* %78, align 4
  %80 = load i32, i32* %6, align 4
  %81 = call i32 (i8*, ...) @printf(i8* getelementptr inbounds ([7 x i8], [7 x i8]* @.str.2, i64 0, i64 0), i32 %79, i32 %80)
  %82 = load i32, i32* %10, align 4
  %83 = sext i32 %82 to i64
  %84 = getelementptr inbounds [100000 x %struct.student], [100000 x %struct.student]* %15, i64 0, i64 %83
  %85 = getelementptr inbounds %struct.student, %struct.student* %84, i32 0, i32 0
  %86 = load i32, i32* %85, align 4
  %87 = load i32, i32* %7, align 4
  %88 = call i32 (i8*, ...) @printf(i8* getelementptr inbounds ([7 x i8], [7 x i8]* @.str.2, i64 0, i64 0), i32 %86, i32 %87)
  %89 = load i32, i32* %11, align 4
  %90 = sext i32 %89 to i64
  %91 = getelementptr inbounds [100000 x %struct.student], [100000 x %struct.student]* %15, i64 0, i64 %90
  %92 = getelementptr inbounds %struct.student, %struct.student* %91, i32 0, i32 0
  %93 = load i32, i32* %92, align 4
  %94 = load i32, i32* %8, align 4
  %95 = call i32 (i8*, ...) @printf(i8* getelementptr inbounds ([7 x i8], [7 x i8]* @.str.2, i64 0, i64 0), i32 %93, i32 %94)
  ret i32 0
}

declare dso_local i32 @__isoc99_scanf(i8*, ...) #1

declare dso_local i32 @printf(i8*, ...) #1


!llvm.module.flags = !{!0}
!llvm.ident = !{!1}

!0 = !{i32 1, !"wchar_size", i32 4}
!1 = !{!"clang version 10.0.0-4ubuntu1 "}
